; Function Attrs: nounwind sspstrong uwtable
define dso_local void @tcg_gen_shli_i32(ptr noundef %0, ptr noundef %1, i32 noundef %2) local_unnamed_addr #2 {
  %or.cond = icmp ult i32 %2, 32
  tail call void @llvm.assume(i1 %or.cond)
  %4 = icmp eq i32 %2, 0
  br i1 %4, label %5, label %16

5:                                                ; preds = %3
  %.not.i = icmp eq ptr %0, %1
  br i1 %.not.i, label %tcg_gen_mov_i32.exit, label %6

6:                                                ; preds = %5
  %7 = tail call align 8 ptr @llvm.threadlocal.address.p0(ptr align 8 @tcg_ctx)
  %8 = load ptr, ptr %7, align 8
  %9 = ptrtoint ptr %0 to i64
  %10 = getelementptr inbounds nuw i8, ptr %8, i64 %9
  %11 = ptrtoint ptr %10 to i64
  %12 = ptrtoint ptr %1 to i64
  %13 = getelementptr inbounds nuw i8, ptr %8, i64 %12
  %14 = ptrtoint ptr %13 to i64
  %15 = tail call ptr @tcg_gen_op2(i32 noundef 5, i32 noundef 0, i64 noundef %11, i64 noundef %14)
  br label %tcg_gen_mov_i32.exit

16:                                               ; preds = %3
  %17 = tail call ptr @tcg_constant_i32(i32 noundef %2) #6
  %18 = tail call align 8 ptr @llvm.threadlocal.address.p0(ptr align 8 @tcg_ctx)
  %19 = load ptr, ptr %18, align 8
  %20 = ptrtoint ptr %0 to i64
  %21 = getelementptr inbounds nuw i8, ptr %19, i64 %20
  %22 = ptrtoint ptr %21 to i64
  %23 = ptrtoint ptr %1 to i64
  %24 = getelementptr inbounds nuw i8, ptr %19, i64 %23
  %25 = ptrtoint ptr %24 to i64
  %26 = ptrtoint ptr %17 to i64
  %27 = getelementptr inbounds nuw i8, ptr %19, i64 %26
  %28 = ptrtoint ptr %27 to i64
  %29 = tail call ptr @tcg_gen_op3(i32 noundef 29, i32 noundef 0, i64 noundef %22, i64 noundef %25, i64 noundef %28)
  br label %tcg_gen_mov_i32.exit

tcg_gen_mov_i32.exit:                             ; preds = %6, %5, %16
  ret void
}